target datalayout = "e-m:e-p270:32:32-p271:32:32-p272:64:64-i64:64-i128:128-f80:128-n8:16:32:64-S128"
target triple = "x86_64-pc-linux-gnu"

%struct.status_string_entry = type { ptr, i32 }

; Function Attrs: mustprogress nounwind uwtable
define noundef zeroext i1 @_Z28grpc_status_code_from_stringPKcP16grpc_status_code(ptr noundef %0, ptr noundef %1) #4 {
  %3 = alloca i1, align 1
  %4 = alloca ptr, align 8
  %5 = alloca ptr, align 8
  %6 = alloca i64, align 8
  %7 = alloca i32, align 4
  store ptr %0, ptr %4, align 8, !tbaa !3
  store ptr %1, ptr %5, align 8, !tbaa !8
  call void @llvm.lifetime.start.p0(i64 8, ptr %6) #3
  store i64 0, ptr %6, align 8, !tbaa !9
  br label %8

8:                                                ; preds = %27, %2
  %9 = load i64, ptr %6, align 8, !tbaa !9
  %10 = icmp ult i64 %9, 17
  br i1 %10, label %12, label %11

11:                                               ; preds = %8
  store i32 2, ptr %7, align 4
  br label %30

12:                                               ; preds = %8
  %13 = load ptr, ptr %4, align 8, !tbaa !3
  %14 = load i64, ptr %6, align 8, !tbaa !9
  %15 = getelementptr inbounds nuw [17 x %struct.status_string_entry], ptr @_ZL23g_status_string_entries, i64 0, i64 %14
  %16 = getelementptr inbounds nuw %struct.status_string_entry, ptr %15, i32 0, i32 0
  %17 = load ptr, ptr %16, align 16, !tbaa !11
  %18 = call i32 @strcmp(ptr noundef %13, ptr noundef %17) #17
  %19 = icmp eq i32 %18, 0
  br i1 %19, label %20, label %26

20:                                               ; preds = %12
  %21 = load i64, ptr %6, align 8, !tbaa !9
  %22 = getelementptr inbounds nuw [17 x %struct.status_string_entry], ptr @_ZL23g_status_string_entries, i64 0, i64 %21
  %23 = getelementptr inbounds nuw %struct.status_string_entry, ptr %22, i32 0, i32 1
  %24 = load i32, ptr %23, align 8, !tbaa !14
  %25 = load ptr, ptr %5, align 8, !tbaa !8
  store i32 %24, ptr %25, align 4, !tbaa !15
  store i1 true, ptr %3, align 1
  store i32 1, ptr %7, align 4
  br label %30

26:                                               ; preds = %12
  br label %27

27:                                               ; preds = %26
  %28 = load i64, ptr %6, align 8, !tbaa !9
  %29 = add i64 %28, 1
  store i64 %29, ptr %6, align 8, !tbaa !9
  br label %8, !llvm.loop !16

30:                                               ; preds = %20, %11
  call void @llvm.lifetime.end.p0(i64 8, ptr %6) #3
  %31 = load i32, ptr %7, align 4
  switch i32 %31, label %35 [
    i32 2, label %32
    i32 1, label %33
  ]

32:                                               ; preds = %30
  store i1 false, ptr %3, align 1
  br label %33

33:                                               ; preds = %32, %30
  %34 = load i1, ptr %3, align 1
  ret i1 %34

35:                                               ; preds = %30
  unreachable
}