; Function Attrs: mustprogress nofree nounwind memory(read, argmem: readwrite, inaccessiblemem: none) uwtable
define noundef zeroext i1 @_Z28grpc_status_code_from_stringPKcP16grpc_status_code(ptr noundef readonly captures(none) %0, ptr noundef writeonly captures(none) %1) local_unnamed_addr #3 {
  br label %5

3:                                                ; preds = %5
  %4 = add nuw nsw i64 %.0711, 1
  %exitcond.not = icmp eq i64 %4, 17
  br i1 %exitcond.not, label %.loopexit, label %5, !llvm.loop !3

5:                                                ; preds = %2, %3
  %.0711 = phi i64 [ 0, %2 ], [ %4, %3 ]
  %6 = getelementptr inbounds nuw [17 x %struct.status_string_entry], ptr @_ZL23g_status_string_entries, i64 0, i64 %.0711
  %7 = load ptr, ptr %6, align 16, !tbaa !5
  %8 = tail call i32 @strcmp(ptr noundef nonnull dereferenceable(1) %0, ptr noundef nonnull dereferenceable(1) %7) #17
  %9 = icmp eq i32 %8, 0
  br i1 %9, label %10, label %3

10:                                               ; preds = %5
  %11 = getelementptr inbounds nuw i8, ptr %6, i64 8
  %12 = load i32, ptr %11, align 8, !tbaa !12
  store i32 %12, ptr %1, align 4, !tbaa !13
  br label %.loopexit

.loopexit:                                        ; preds = %3, %10
  ret i1 %9
}